target datalayout = "e-m:e-p270:32:32-p271:32:32-p272:64:64-i64:64-i128:128-f80:128-n8:16:32:64-S128"
target triple = "x86_64-pc-linux-gnu"

%struct.AVRational = type { i32, i32 }
%struct.Mpeg4DecContext = type { %struct.MpegEncContext, i32, i32, i32, i32, i32, i32, i32, i32, i32, [2 x [2 x i32]], [2 x [2 x i32]], [4 x [2 x i16]], [2 x i32], i32, i32, i32, i32, i32, i32, i32, i32, i32, i32, i32, i32, ptr, i32, i32, i32, i32, i32, i32, i32, %struct.Mpeg4VideoDSPContext, ptr, ptr, [12 x [64 x i32]], i32, [3 x [256 x i16]] }
%struct.MpegEncContext = type { ptr, i32, i32, i32, [12 x i32], i32, %struct.ScanTable, %struct.ScanTable, [64 x i8], [64 x i8], ptr, ptr, i32, i32, i32, i32, i32, i32, i32, i32, i32, i32, i32, i32, i32, i32, i32, i32, i32, i32, i32, i32, i64, i64, ptr, %struct.BufferPoolContext, i32, i32, %union.anon, i32, %struct.MPVWorkPicture, %struct.MPVWorkPicture, %struct.MPVWorkPicture, i32, [3 x i32], ptr, [3 x ptr], ptr, ptr, ptr, ptr, ptr, ptr, [3 x ptr], i32, ptr, ptr, ptr, ptr, %struct.ScratchpadContext, i32, i32, i32, i32, i32, i32, %struct.BlockDSPContext, %struct.H264ChromaContext, %struct.HpelDSPContext, %struct.IDCTDSPContext, %struct.QpelDSPContext, %struct.VideoDSPContext, %struct.H263DSPContext, ptr, [2 x [2 x ptr]], i32, i32, [2 x [4 x [2 x i32]]], [2 x [2 x i32]], [2 x [2 x [2 x i32]]], [2 x [64 x i16]], i32, i32, i32, i32, i32, [6 x i32], [6 x i32], [3 x ptr], ptr, [64 x i16], [64 x i16], [64 x i16], [64 x i16], i32, i32, %struct.GetBitContext, i32, i32, i32, i32, i32, i32, i32, i32, i32, i32, i32, i32, i32, i32, i32, i64, i64, i16, i16, i16, i16, i32, i32, i32, i32, i32, i32, i32, i32, i32, [3 x i32], i32, i32, i32, i32, i32, i32, %struct.GetBitContext, i32, [2 x [2 x i32]], i32, i32, i32, i32, i32, i32, i32, i32, i32, i32, i32, i32, i32, i32, [2 x i32], i32, i32, ptr, ptr, ptr, ptr, ptr, i32, i32, %struct.ERContext }
%struct.ScanTable = type { ptr, [64 x i8], [64 x i8] }
%struct.BufferPoolContext = type { ptr, ptr, ptr, ptr, ptr, i32, i32, i32 }
%union.anon = type { [32 x ptr] }
%struct.MPVWorkPicture = type { [3 x ptr], [3 x i64], ptr, ptr, [2 x ptr], ptr, ptr, [2 x ptr], i32 }
%struct.ScratchpadContext = type { ptr, ptr, %union.anon.0, i32 }
%union.anon.0 = type { ptr }
%struct.BlockDSPContext = type { ptr, ptr, [2 x ptr] }
%struct.H264ChromaContext = type { [4 x ptr], [4 x ptr] }
%struct.HpelDSPContext = type { [4 x [4 x ptr]], [4 x [4 x ptr]], [4 x [4 x ptr]], [4 x ptr] }
%struct.IDCTDSPContext = type { ptr, ptr, ptr, ptr, ptr, ptr, [64 x i8], i32, i32 }
%struct.QpelDSPContext = type { [2 x [16 x ptr]], [2 x [16 x ptr]], [2 x [16 x ptr]] }
%struct.VideoDSPContext = type { ptr, ptr }
%struct.H263DSPContext = type { ptr, ptr }
%struct.GetBitContext = type { ptr, ptr, i32, i32, i32 }
%struct.ERContext = type { ptr, ptr, i32, ptr, i32, i32, i32, i64, i64, i32, i32, ptr, ptr, [3 x ptr], ptr, ptr, [2 x [4 x [2 x i32]]], %struct.ERPicture, %struct.ERPicture, %struct.ERPicture, [2 x ptr], [2 x ptr], i16, i16, i32, i32, ptr, ptr }
%struct.ERPicture = type { ptr, ptr, ptr, [2 x ptr], [2 x ptr], ptr, i32 }
%struct.Mpeg4VideoDSPContext = type { ptr, ptr }
%struct.AVCodecContext = type { ptr, i32, i32, ptr, i32, i32, ptr, ptr, ptr, i64, i32, i32, ptr, i32, %struct.AVRational, %struct.AVRational, %struct.AVRational, i32, i32, i32, i32, i32, %struct.AVRational, i32, i32, i32, i32, i32, i32, i32, i32, i32, i32, i32, ptr, ptr, i32, float, float, float, float, float, float, float, float, float, i32, i32, i32, i32, i32, i32, i32, i32, i32, i32, i32, i32, ptr, ptr, ptr, i32, i32, i32, i32, i32, i32, i32, i32, i32, i32, %struct.AVChannelLayout, i32, i32, i32, i32, i32, i32, i32, i32, ptr, i32, i32, i32, float, float, i32, i32, i32, i32, i32, ptr, i64, i64, float, float, i32, i32, ptr, ptr, i32, i32, i32, i32, i32, ptr, ptr, ptr, ptr, i32, i32, [8 x i64], i32, i32, i32, i32, i32, i32, i32, ptr, ptr, i32, i32, i32, i32, i32, i32, i32, i32, i32, i32, ptr, ptr, i32, i32, ptr, ptr, ptr, ptr, i32, i32, i64, i32, i32, i64, ptr, i64, ptr, i32, ptr, i32 }
%struct.AVChannelLayout = type { i32, i32, %union.anon.1, ptr }
%union.anon.1 = type { i64 }
%struct.AVBufferRef = type { ptr, ptr, i64 }
%struct.AVPacket = type { ptr, i64, i64, ptr, i32, i32, i32, ptr, i32, i64, i64, ptr, ptr, %struct.AVRational }

@.str.53 = private unnamed_addr constant [184 x i8] c"Video uses a non-standard and wasteful way to store B-frames ('packed B-frames'). Consider using the mpeg4_unpack_bframes bitstream filter without encoding but stream copy to fix it.\0A\00", align 1

; Function Attrs: inlinehint nounwind uwtable
define internal i32 @get_bits_count(ptr noundef %0) #3 {
  %2 = alloca ptr, align 8
  store ptr %0, ptr %2, align 8, !tbaa !116
  %3 = load ptr, ptr %2, align 8, !tbaa !116
  %4 = getelementptr inbounds nuw %struct.GetBitContext, ptr %3, i32 0, i32 2
  %5 = load i32, ptr %4, align 8, !tbaa !118
  ret i32 %5
}

; Function Attrs: nounwind uwtable
define i32 @ff_mpeg4_frame_end(ptr noundef %0, ptr noundef %1) #0 {
  %3 = alloca i32, align 4
  %4 = alloca ptr, align 8
  %5 = alloca ptr, align 8
  %6 = alloca ptr, align 8
  %7 = alloca ptr, align 8
  %8 = alloca i32, align 4
  %9 = alloca i32, align 4
  %10 = alloca i32, align 4
  %11 = alloca ptr, align 8
  %12 = alloca i32, align 4
  %13 = alloca i32, align 4
  %14 = alloca i32, align 4
  store ptr %0, ptr %4, align 8, !tbaa !159
  store ptr %1, ptr %5, align 8, !tbaa !236
  call void @llvm.lifetime.start.p0(i64 8, ptr %6) #13
  %15 = load ptr, ptr %4, align 8, !tbaa !159
  %16 = getelementptr inbounds nuw %struct.AVCodecContext, ptr %15, i32 0, i32 6
  %17 = load ptr, ptr %16, align 8, !tbaa !160
  store ptr %17, ptr %6, align 8, !tbaa !14
  call void @llvm.lifetime.start.p0(i64 8, ptr %7) #13
  %18 = load ptr, ptr %6, align 8, !tbaa !14
  %19 = getelementptr inbounds nuw %struct.Mpeg4DecContext, ptr %18, i32 0, i32 0
  store ptr %19, ptr %7, align 8, !tbaa !4
  call void @llvm.lifetime.start.p0(i64 4, ptr %8) #13
  %20 = load ptr, ptr %7, align 8, !tbaa !4
  %21 = getelementptr inbounds nuw %struct.MpegEncContext, ptr %20, i32 0, i32 125
  %22 = load i32, ptr %21, align 4, !tbaa !169
  %23 = icmp ne i32 %22, 0
  br i1 %23, label %24, label %163

24:                                               ; preds = %2
  call void @llvm.lifetime.start.p0(i64 4, ptr %9) #13
  %25 = load ptr, ptr %6, align 8, !tbaa !14
  %26 = getelementptr inbounds nuw %struct.Mpeg4DecContext, ptr %25, i32 0, i32 26
  %27 = load ptr, ptr %26, align 8, !tbaa !229
  %28 = icmp ne ptr %27, null
  br i1 %28, label %29, label %41

29:                                               ; preds = %24
  %30 = load ptr, ptr %7, align 8, !tbaa !4
  %31 = getelementptr inbounds nuw %struct.MpegEncContext, ptr %30, i32 0, i32 134
  %32 = getelementptr inbounds nuw %struct.GetBitContext, ptr %31, i32 0, i32 0
  %33 = load ptr, ptr %32, align 8, !tbaa !233
  %34 = load ptr, ptr %6, align 8, !tbaa !14
  %35 = getelementptr inbounds nuw %struct.Mpeg4DecContext, ptr %34, i32 0, i32 26
  %36 = load ptr, ptr %35, align 8, !tbaa !229
  %37 = getelementptr inbounds nuw %struct.AVBufferRef, ptr %36, i32 0, i32 1
  %38 = load ptr, ptr %37, align 8, !tbaa !235
  %39 = icmp eq ptr %33, %38
  br i1 %39, label %40, label %41

40:                                               ; preds = %29
  br label %46

41:                                               ; preds = %29, %24
  %42 = load ptr, ptr %7, align 8, !tbaa !4
  %43 = getelementptr inbounds nuw %struct.MpegEncContext, ptr %42, i32 0, i32 134
  %44 = call i32 @get_bits_count(ptr noundef %43)
  %45 = ashr i32 %44, 3
  br label %46

46:                                               ; preds = %41, %40
  %47 = phi i32 [ 0, %40 ], [ %45, %41 ]
  store i32 %47, ptr %9, align 4, !tbaa !47
  call void @llvm.lifetime.start.p0(i64 4, ptr %10) #13
  store i32 0, ptr %10, align 4, !tbaa !47
  call void @llvm.lifetime.start.p0(i64 8, ptr %11) #13
  %48 = load ptr, ptr %5, align 8, !tbaa !236
  %49 = getelementptr inbounds nuw %struct.AVPacket, ptr %48, i32 0, i32 3
  %50 = load ptr, ptr %49, align 8, !tbaa !238
  store ptr %50, ptr %11, align 8, !tbaa !9
  call void @llvm.lifetime.start.p0(i64 4, ptr %12) #13
  %51 = load ptr, ptr %5, align 8, !tbaa !236
  %52 = getelementptr inbounds nuw %struct.AVPacket, ptr %51, i32 0, i32 4
  %53 = load i32, ptr %52, align 8, !tbaa !240
  store i32 %53, ptr %12, align 4, !tbaa !47
  %54 = load i32, ptr %12, align 4, !tbaa !47
  %55 = load i32, ptr %9, align 4, !tbaa !47
  %56 = sub nsw i32 %54, %55
  %57 = icmp sgt i32 %56, 7
  br i1 %57, label %58, label %117

58:                                               ; preds = %46
  call void @llvm.lifetime.start.p0(i64 4, ptr %13) #13
  %59 = load i32, ptr %9, align 4, !tbaa !47
  store i32 %59, ptr %13, align 4, !tbaa !47
  br label %60

60:                                               ; preds = %113, %58
  %61 = load i32, ptr %13, align 4, !tbaa !47
  %62 = load i32, ptr %12, align 4, !tbaa !47
  %63 = sub nsw i32 %62, 4
  %64 = icmp slt i32 %61, %63
  br i1 %64, label %65, label %116

65:                                               ; preds = %60
  %66 = load ptr, ptr %11, align 8, !tbaa !9
  %67 = load i32, ptr %13, align 4, !tbaa !47
  %68 = sext i32 %67 to i64
  %69 = getelementptr inbounds i8, ptr %66, i64 %68
  %70 = load i8, ptr %69, align 1, !tbaa !95
  %71 = zext i8 %70 to i32
  %72 = icmp eq i32 %71, 0
  br i1 %72, label %73, label %112

73:                                               ; preds = %65
  %74 = load ptr, ptr %11, align 8, !tbaa !9
  %75 = load i32, ptr %13, align 4, !tbaa !47
  %76 = add nsw i32 %75, 1
  %77 = sext i32 %76 to i64
  %78 = getelementptr inbounds i8, ptr %74, i64 %77
  %79 = load i8, ptr %78, align 1, !tbaa !95
  %80 = zext i8 %79 to i32
  %81 = icmp eq i32 %80, 0
  br i1 %81, label %82, label %112

82:                                               ; preds = %73
  %83 = load ptr, ptr %11, align 8, !tbaa !9
  %84 = load i32, ptr %13, align 4, !tbaa !47
  %85 = add nsw i32 %84, 2
  %86 = sext i32 %85 to i64
  %87 = getelementptr inbounds i8, ptr %83, i64 %86
  %88 = load i8, ptr %87, align 1, !tbaa !95
  %89 = zext i8 %88 to i32
  %90 = icmp eq i32 %89, 1
  br i1 %90, label %91, label %112

91:                                               ; preds = %82
  %92 = load ptr, ptr %11, align 8, !tbaa !9
  %93 = load i32, ptr %13, align 4, !tbaa !47
  %94 = add nsw i32 %93, 3
  %95 = sext i32 %94 to i64
  %96 = getelementptr inbounds i8, ptr %92, i64 %95
  %97 = load i8, ptr %96, align 1, !tbaa !95
  %98 = zext i8 %97 to i32
  %99 = icmp eq i32 %98, 182
  br i1 %99, label %100, label %112

100:                                              ; preds = %91
  %101 = load ptr, ptr %11, align 8, !tbaa !9
  %102 = load i32, ptr %13, align 4, !tbaa !47
  %103 = add nsw i32 %102, 4
  %104 = sext i32 %103 to i64
  %105 = getelementptr inbounds i8, ptr %101, i64 %104
  %106 = load i8, ptr %105, align 1, !tbaa !95
  %107 = zext i8 %106 to i32
  %108 = and i32 %107, 64
  %109 = icmp ne i32 %108, 0
  %110 = xor i1 %109, true
  %111 = zext i1 %110 to i32
  store i32 %111, ptr %10, align 4, !tbaa !47
  br label %116

112:                                              ; preds = %91, %82, %73, %65
  br label %113

113:                                              ; preds = %112
  %114 = load i32, ptr %13, align 4, !tbaa !47
  %115 = add nsw i32 %114, 1
  store i32 %115, ptr %13, align 4, !tbaa !47
  br label %60, !llvm.loop !241

116:                                              ; preds = %100, %60
  call void @llvm.lifetime.end.p0(i64 4, ptr %13) #13
  br label %117

117:                                              ; preds = %116, %46
  %118 = load i32, ptr %10, align 4, !tbaa !47
  %119 = icmp ne i32 %118, 0
  br i1 %119, label %120, label %159

120:                                              ; preds = %117
  %121 = load ptr, ptr %6, align 8, !tbaa !14
  %122 = getelementptr inbounds nuw %struct.Mpeg4DecContext, ptr %121, i32 0, i32 28
  %123 = load i32, ptr %122, align 4, !tbaa !242
  %124 = icmp ne i32 %123, 0
  br i1 %124, label %131, label %125

125:                                              ; preds = %120
  %126 = load ptr, ptr %7, align 8, !tbaa !4
  %127 = getelementptr inbounds nuw %struct.MpegEncContext, ptr %126, i32 0, i32 10
  %128 = load ptr, ptr %127, align 8, !tbaa !70
  call void (ptr, i32, ptr, ...) @av_log(ptr noundef %128, i32 noundef 32, ptr noundef @.str.53)
  %129 = load ptr, ptr %6, align 8, !tbaa !14
  %130 = getelementptr inbounds nuw %struct.Mpeg4DecContext, ptr %129, i32 0, i32 28
  store i32 1, ptr %130, align 4, !tbaa !242
  br label %131

131:                                              ; preds = %125, %120
  %132 = load ptr, ptr %6, align 8, !tbaa !14
  %133 = getelementptr inbounds nuw %struct.Mpeg4DecContext, ptr %132, i32 0, i32 26
  %134 = load ptr, ptr %5, align 8, !tbaa !236
  %135 = getelementptr inbounds nuw %struct.AVPacket, ptr %134, i32 0, i32 0
  %136 = load ptr, ptr %135, align 8, !tbaa !243
  %137 = call i32 @av_buffer_replace(ptr noundef %133, ptr noundef %136)
  store i32 %137, ptr %8, align 4, !tbaa !47
  %138 = load i32, ptr %8, align 4, !tbaa !47
  %139 = icmp slt i32 %138, 0
  br i1 %139, label %140, label %142

140:                                              ; preds = %131
  %141 = load i32, ptr %8, align 4, !tbaa !47
  store i32 %141, ptr %3, align 4
  store i32 1, ptr %14, align 4
  br label %160

142:                                              ; preds = %131
  %143 = load ptr, ptr %11, align 8, !tbaa !9
  %144 = load i32, ptr %9, align 4, !tbaa !47
  %145 = sext i32 %144 to i64
  %146 = getelementptr inbounds i8, ptr %143, i64 %145
  %147 = load ptr, ptr %6, align 8, !tbaa !14
  %148 = getelementptr inbounds nuw %struct.Mpeg4DecContext, ptr %147, i32 0, i32 26
  %149 = load ptr, ptr %148, align 8, !tbaa !229
  %150 = getelementptr inbounds nuw %struct.AVBufferRef, ptr %149, i32 0, i32 1
  store ptr %146, ptr %150, align 8, !tbaa !235
  %151 = load i32, ptr %12, align 4, !tbaa !47
  %152 = load i32, ptr %9, align 4, !tbaa !47
  %153 = sub nsw i32 %151, %152
  %154 = sext i32 %153 to i64
  %155 = load ptr, ptr %6, align 8, !tbaa !14
  %156 = getelementptr inbounds nuw %struct.Mpeg4DecContext, ptr %155, i32 0, i32 26
  %157 = load ptr, ptr %156, align 8, !tbaa !229
  %158 = getelementptr inbounds nuw %struct.AVBufferRef, ptr %157, i32 0, i32 2
  store i64 %154, ptr %158, align 8, !tbaa !230
  br label %159

159:                                              ; preds = %142, %117
  store i32 0, ptr %14, align 4
  br label %160

160:                                              ; preds = %159, %140
  call void @llvm.lifetime.end.p0(i64 4, ptr %12) #13
  call void @llvm.lifetime.end.p0(i64 8, ptr %11) #13
  call void @llvm.lifetime.end.p0(i64 4, ptr %10) #13
  call void @llvm.lifetime.end.p0(i64 4, ptr %9) #13
  %161 = load i32, ptr %14, align 4
  switch i32 %161, label %164 [
    i32 0, label %162
  ]

162:                                              ; preds = %160
  br label %163

163:                                              ; preds = %162, %2
  store i32 0, ptr %3, align 4
  store i32 1, ptr %14, align 4
  br label %164

164:                                              ; preds = %163, %160
  call void @llvm.lifetime.end.p0(i64 4, ptr %8) #13
  call void @llvm.lifetime.end.p0(i64 8, ptr %7) #13
  call void @llvm.lifetime.end.p0(i64 8, ptr %6) #13
  %165 = load i32, ptr %3, align 4
  ret i32 %165
}