; Function Attrs: nounwind uwtable
define range(i32 -2147483648, 1) i32 @ff_mpeg4_frame_end(ptr noundef readonly captures(none) %0, ptr noundef readonly captures(none) %1) local_unnamed_addr #0 {
  %3 = getelementptr inbounds nuw i8, ptr %0, i64 32
  %4 = load ptr, ptr %3, align 8, !tbaa !150
  %5 = getelementptr inbounds nuw i8, ptr %4, i64 4116
  %6 = load i32, ptr %5, align 4, !tbaa !159
  %.not = icmp eq i32 %6, 0
  br i1 %.not, label %.critedge, label %7

7:                                                ; preds = %2
  %8 = getelementptr inbounds nuw i8, ptr %4, i64 4952
  %9 = load ptr, ptr %8, align 8, !tbaa !222
  %.not46 = icmp eq ptr %9, null
  br i1 %.not46, label %16, label %10

10:                                               ; preds = %7
  %11 = getelementptr inbounds nuw i8, ptr %4, i64 4160
  %12 = load ptr, ptr %11, align 8, !tbaa !226
  %13 = getelementptr inbounds nuw i8, ptr %9, i64 8
  %14 = load ptr, ptr %13, align 8, !tbaa !228
  %15 = icmp eq ptr %12, %14
  br i1 %15, label %19, label %16

16:                                               ; preds = %10, %7
  %17 = getelementptr i8, ptr %4, i64 4176
  %.val = load i32, ptr %17, align 8, !tbaa !96
  %18 = ashr i32 %.val, 3
  br label %19

19:                                               ; preds = %10, %16
  %20 = phi i32 [ %18, %16 ], [ 0, %10 ]
  %21 = getelementptr inbounds nuw i8, ptr %1, i64 24
  %22 = load ptr, ptr %21, align 8, !tbaa !231
  %23 = getelementptr inbounds nuw i8, ptr %1, i64 32
  %24 = load i32, ptr %23, align 8, !tbaa !233
  %25 = sub nsw i32 %24, %20
  %26 = icmp sgt i32 %25, 7
  br i1 %26, label %.preheader, label %.critedge

.preheader:                                       ; preds = %19
  %27 = add nsw i32 %24, -4
  %28 = icmp slt i32 %20, %27
  br i1 %28, label %.lr.ph.preheader, label %.critedge

.lr.ph.preheader:                                 ; preds = %.preheader
  %29 = sext i32 %20 to i64
  br label %.lr.ph

.lr.ph:                                           ; preds = %.lr.ph.preheader, %49
  %indvars.iv = phi i64 [ %29, %.lr.ph.preheader ], [ %indvars.iv.next, %49 ]
  %30 = getelementptr inbounds i8, ptr %22, i64 %indvars.iv
  %31 = load i8, ptr %30, align 1, !tbaa !88
  %32 = icmp eq i8 %31, 0
  br i1 %32, label %33, label %49

33:                                               ; preds = %.lr.ph
  %34 = getelementptr i8, ptr %30, i64 1
  %35 = load i8, ptr %34, align 1, !tbaa !88
  %36 = icmp eq i8 %35, 0
  br i1 %36, label %37, label %49

37:                                               ; preds = %33
  %38 = getelementptr i8, ptr %30, i64 2
  %39 = load i8, ptr %38, align 1, !tbaa !88
  %40 = icmp eq i8 %39, 1
  br i1 %40, label %41, label %49

41:                                               ; preds = %37
  %42 = getelementptr i8, ptr %30, i64 3
  %43 = load i8, ptr %42, align 1, !tbaa !88
  %44 = icmp eq i8 %43, -74
  br i1 %44, label %45, label %49

45:                                               ; preds = %41
  %46 = getelementptr i8, ptr %30, i64 4
  %47 = load i8, ptr %46, align 1, !tbaa !88
  %48 = and i8 %47, 64
  %.not47.not = icmp eq i8 %48, 0
  br i1 %.not47.not, label %50, label %.critedge

49:                                               ; preds = %.lr.ph, %33, %37, %41
  %indvars.iv.next = add nsw i64 %indvars.iv, 1
  %lftr.wideiv = trunc i64 %indvars.iv.next to i32
  %exitcond.not = icmp eq i32 %27, %lftr.wideiv
  br i1 %exitcond.not, label %.critedge, label %.lr.ph, !llvm.loop !234

50:                                               ; preds = %45
  %51 = getelementptr inbounds nuw i8, ptr %4, i64 4964
  %52 = load i32, ptr %51, align 4, !tbaa !235
  %.not49 = icmp eq i32 %52, 0
  br i1 %.not49, label %53, label %56

53:                                               ; preds = %50
  %54 = getelementptr inbounds nuw i8, ptr %4, i64 472
  %55 = load ptr, ptr %54, align 8, !tbaa !61
  tail call void (ptr, i32, ptr, ...) @av_log(ptr noundef %55, i32 noundef 32, ptr noundef nonnull @.str.53) #16
  store i32 1, ptr %51, align 4, !tbaa !235
  br label %56

56:                                               ; preds = %53, %50
  %57 = load ptr, ptr %1, align 8, !tbaa !236
  %58 = tail call i32 @av_buffer_replace(ptr noundef nonnull %8, ptr noundef %57) #16
  %59 = icmp slt i32 %58, 0
  br i1 %59, label %.critedge, label %60

60:                                               ; preds = %56
  %61 = getelementptr inbounds i8, ptr %22, i64 %29
  %62 = load ptr, ptr %8, align 8, !tbaa !222
  %63 = getelementptr inbounds nuw i8, ptr %62, i64 8
  store ptr %61, ptr %63, align 8, !tbaa !228
  %64 = zext nneg i32 %25 to i64
  %65 = getelementptr inbounds nuw i8, ptr %62, i64 16
  store i64 %64, ptr %65, align 8, !tbaa !223
  br label %.critedge

.critedge:                                        ; preds = %49, %.preheader, %45, %60, %19, %2, %56
  %.1 = phi i32 [ %58, %56 ], [ 0, %2 ], [ 0, %19 ], [ 0, %60 ], [ 0, %45 ], [ 0, %.preheader ], [ 0, %49 ]
  ret i32 %.1
}